target datalayout = "e-m:e-p270:32:32-p271:32:32-p272:64:64-i64:64-i128:128-f80:128-n8:16:32:64-S128"
target triple = "x86_64-pc-linux-gnu"

%struct.ml_kem_gen_ctx_st = type { ptr, ptr, i32, i32, [64 x i8], ptr }

@.str.9 = private unnamed_addr constant [60 x i8] c"../openssl/providers/implementations/keymgmt/ml_kem_kmgmt.c\00", align 1

; Function Attrs: nounwind uwtable
define internal void @ml_kem_gen_cleanup(ptr noundef %0) #0 {
  %2 = alloca ptr, align 8
  %3 = alloca ptr, align 8
  store ptr %0, ptr %2, align 8, !tbaa !3
  call void @llvm.lifetime.start.p0(i64 8, ptr %3) #7
  %4 = load ptr, ptr %2, align 8, !tbaa !3
  store ptr %4, ptr %3, align 8, !tbaa !38
  %5 = load ptr, ptr %3, align 8, !tbaa !38
  %6 = getelementptr inbounds nuw %struct.ml_kem_gen_ctx_st, ptr %5, i32 0, i32 5
  %7 = load ptr, ptr %6, align 8, !tbaa !43
  %8 = icmp ne ptr %7, null
  br i1 %8, label %9, label %13

9:                                                ; preds = %1
  %10 = load ptr, ptr %3, align 8, !tbaa !38
  %11 = getelementptr inbounds nuw %struct.ml_kem_gen_ctx_st, ptr %10, i32 0, i32 5
  %12 = load ptr, ptr %11, align 8, !tbaa !43
  call void @OPENSSL_cleanse(ptr noundef %12, i64 noundef 32)
  br label %13

13:                                               ; preds = %9, %1
  %14 = load ptr, ptr %3, align 8, !tbaa !38
  %15 = getelementptr inbounds nuw %struct.ml_kem_gen_ctx_st, ptr %14, i32 0, i32 1
  %16 = load ptr, ptr %15, align 8, !tbaa !40
  call void @CRYPTO_free(ptr noundef %16, ptr noundef @.str.9, i32 noundef 738)
  %17 = load ptr, ptr %3, align 8, !tbaa !38
  call void @CRYPTO_free(ptr noundef %17, ptr noundef @.str.9, i32 noundef 739)
  call void @llvm.lifetime.end.p0(i64 8, ptr %3) #7
  ret void
}

; Function Attrs: nounwind uwtable
define internal ptr @ml_kem_gen_init(ptr noundef %0, i32 noundef %1, ptr noundef %2, i32 noundef %3) #0 {
  %5 = alloca ptr, align 8
  %6 = alloca ptr, align 8
  %7 = alloca i32, align 4
  %8 = alloca ptr, align 8
  %9 = alloca i32, align 4
  %10 = alloca ptr, align 8
  %11 = alloca i32, align 4
  store ptr %0, ptr %6, align 8, !tbaa !3
  store i32 %1, ptr %7, align 4, !tbaa !25
  store ptr %2, ptr %8, align 8, !tbaa !7
  store i32 %3, ptr %9, align 4, !tbaa !25
  call void @llvm.lifetime.start.p0(i64 8, ptr %10) #7
  store ptr null, ptr %10, align 8, !tbaa !38
  %12 = call i32 @ossl_prov_is_running()
  %13 = icmp ne i32 %12, 0
  br i1 %13, label %14, label %21

14:                                               ; preds = %4
  %15 = load i32, ptr %7, align 4, !tbaa !25
  %16 = and i32 %15, 5
  %17 = icmp eq i32 %16, 0
  br i1 %17, label %21, label %18

18:                                               ; preds = %14
  %19 = call noalias ptr @CRYPTO_zalloc(i64 noundef 96, ptr noundef @.str.9, i32 noundef 665)
  store ptr %19, ptr %10, align 8, !tbaa !38
  %20 = icmp eq ptr %19, null
  br i1 %20, label %21, label %22

21:                                               ; preds = %18, %14, %4
  store ptr null, ptr %5, align 8
  store i32 1, ptr %11, align 4
  br label %40

22:                                               ; preds = %18
  %23 = load i32, ptr %7, align 4, !tbaa !25
  %24 = load ptr, ptr %10, align 8, !tbaa !38
  %25 = getelementptr inbounds nuw %struct.ml_kem_gen_ctx_st, ptr %24, i32 0, i32 2
  store i32 %23, ptr %25, align 8, !tbaa !44
  %26 = load i32, ptr %9, align 4, !tbaa !25
  %27 = load ptr, ptr %10, align 8, !tbaa !38
  %28 = getelementptr inbounds nuw %struct.ml_kem_gen_ctx_st, ptr %27, i32 0, i32 3
  store i32 %26, ptr %28, align 4, !tbaa !46
  %29 = load ptr, ptr %6, align 8, !tbaa !3
  %30 = load ptr, ptr %10, align 8, !tbaa !38
  %31 = getelementptr inbounds nuw %struct.ml_kem_gen_ctx_st, ptr %30, i32 0, i32 0
  store ptr %29, ptr %31, align 8, !tbaa !45
  %32 = load ptr, ptr %10, align 8, !tbaa !38
  %33 = load ptr, ptr %8, align 8, !tbaa !7
  %34 = call i32 @ml_kem_gen_set_params(ptr noundef %32, ptr noundef %33)
  %35 = icmp ne i32 %34, 0
  br i1 %35, label %36, label %38

36:                                               ; preds = %22
  %37 = load ptr, ptr %10, align 8, !tbaa !38
  store ptr %37, ptr %5, align 8
  store i32 1, ptr %11, align 4
  br label %40

38:                                               ; preds = %22
  %39 = load ptr, ptr %10, align 8, !tbaa !38
  call void @ml_kem_gen_cleanup(ptr noundef %39)
  store ptr null, ptr %5, align 8
  store i32 1, ptr %11, align 4
  br label %40

40:                                               ; preds = %38, %36, %21
  call void @llvm.lifetime.end.p0(i64 8, ptr %10) #7
  %41 = load ptr, ptr %5, align 8
  ret ptr %41
}