; Function Attrs: nounwind uwtable
define internal fastcc ptr @ml_kem_gen_init(ptr noundef %0, i32 noundef %1, ptr noundef %2, i32 noundef range(i32 1454, 1457) %3) unnamed_addr #0 {
  %5 = tail call i32 @ossl_prov_is_running() #7
  %.not = icmp eq i32 %5, 0
  %6 = and i32 %1, 5
  %7 = icmp eq i32 %6, 0
  %or.cond = or i1 %7, %.not
  br i1 %or.cond, label %21, label %8

8:                                                ; preds = %4
  %9 = tail call noalias ptr @CRYPTO_zalloc(i64 noundef 96, ptr noundef nonnull @.str.9, i32 noundef 665) #7
  %10 = icmp eq ptr %9, null
  br i1 %10, label %21, label %11

11:                                               ; preds = %8
  %12 = getelementptr inbounds nuw i8, ptr %9, i64 16
  store i32 %1, ptr %12, align 8, !tbaa !41
  %13 = getelementptr inbounds nuw i8, ptr %9, i64 20
  store i32 %3, ptr %13, align 4, !tbaa !43
  store ptr %0, ptr %9, align 8, !tbaa !42
  %14 = tail call i32 @ml_kem_gen_set_params(ptr noundef nonnull %9, ptr noundef %2)
  %.not12 = icmp eq i32 %14, 0
  br i1 %.not12, label %15, label %21

15:                                               ; preds = %11
  %16 = getelementptr inbounds nuw i8, ptr %9, i64 88
  %17 = load ptr, ptr %16, align 8, !tbaa !40
  %.not.i = icmp eq ptr %17, null
  br i1 %.not.i, label %ml_kem_gen_cleanup.exit, label %18

18:                                               ; preds = %15
  tail call void @OPENSSL_cleanse(ptr noundef nonnull %17, i64 noundef 32) #7
  br label %ml_kem_gen_cleanup.exit

ml_kem_gen_cleanup.exit:                          ; preds = %15, %18
  %19 = getelementptr inbounds nuw i8, ptr %9, i64 8
  %20 = load ptr, ptr %19, align 8, !tbaa !37
  tail call void @CRYPTO_free(ptr noundef %20, ptr noundef nonnull @.str.9, i32 noundef 738) #7
  tail call void @CRYPTO_free(ptr noundef nonnull %9, ptr noundef nonnull @.str.9, i32 noundef 739) #7
  br label %21

21:                                               ; preds = %11, %4, %8, %ml_kem_gen_cleanup.exit
  %.0 = phi ptr [ null, %ml_kem_gen_cleanup.exit ], [ null, %8 ], [ null, %4 ], [ %9, %11 ]
  ret ptr %.0
}